target datalayout = "e-m:e-p270:32:32-p271:32:32-p272:64:64-i64:64-i128:128-f80:128-n8:16:32:64-S128"
target triple = "x86_64-pc-linux-gnu"

%struct.PJconsts = type { ptr, ptr, ptr, ptr, ptr, ptr, ptr, ptr, ptr, ptr, ptr, ptr, i32, ptr, ptr, ptr, ptr, ptr, ptr, ptr, ptr, double, double, double, double, double, double, double, double, double, double, double, double, double, double, double, double, double, double, double, double, double, double, i32, i32, i32, i32, i32, i32, i32, i32, i32, i32, i32, ptr, ptr, ptr, ptr, ptr, ptr, double, double, double, double, double, double, double, double, double, double, double, i32, [7 x double], i32, ptr, ptr, double, double, i32, [4 x i8], %"class.std::shared_ptr", i8, double, i8, %"class.std::__cxx11::basic_string", %"class.std::__cxx11::basic_string", %"class.std::__cxx11::basic_string", i8, %"class.std::vector", i32, %"class.std::vector.3", i32, i8, i8, i8, ptr }
%"class.std::shared_ptr" = type { %"class.std::__shared_ptr" }
%"class.std::__shared_ptr" = type { ptr, %"class.std::__shared_count" }
%"class.std::__shared_count" = type { ptr }
%"class.std::__cxx11::basic_string" = type { %"struct.std::__cxx11::basic_string<char>::_Alloc_hider", i64, %union.anon }
%"struct.std::__cxx11::basic_string<char>::_Alloc_hider" = type { ptr }
%union.anon = type { i64, [8 x i8] }
%"class.std::vector" = type { %"struct.std::_Vector_base" }
%"struct.std::_Vector_base" = type { %"struct.std::_Vector_base<osgeo::proj::operation::GridDescription, std::allocator<osgeo::proj::operation::GridDescription>>::_Vector_impl" }
%"struct.std::_Vector_base<osgeo::proj::operation::GridDescription, std::allocator<osgeo::proj::operation::GridDescription>>::_Vector_impl" = type { %"struct.std::_Vector_base<osgeo::proj::operation::GridDescription, std::allocator<osgeo::proj::operation::GridDescription>>::_Vector_impl_data" }
%"struct.std::_Vector_base<osgeo::proj::operation::GridDescription, std::allocator<osgeo::proj::operation::GridDescription>>::_Vector_impl_data" = type { ptr, ptr, ptr }
%"class.std::vector.3" = type { %"struct.std::_Vector_base.4" }
%"struct.std::_Vector_base.4" = type { %"struct.std::_Vector_base<PJCoordOperation, std::allocator<PJCoordOperation>>::_Vector_impl" }
%"struct.std::_Vector_base<PJCoordOperation, std::allocator<PJCoordOperation>>::_Vector_impl" = type { %"struct.std::_Vector_base<PJCoordOperation, std::allocator<PJCoordOperation>>::_Vector_impl_data" }
%"struct.std::_Vector_base<PJCoordOperation, std::allocator<PJCoordOperation>>::_Vector_impl_data" = type { ptr, ptr, ptr }
%"struct.(anonymous namespace)::tmerc_data" = type { %"struct.(anonymous namespace)::EvendenSnyder", %"struct.(anonymous namespace)::PoderEngsager" }
%"struct.(anonymous namespace)::EvendenSnyder" = type { double, double, ptr }
%"struct.(anonymous namespace)::PoderEngsager" = type { double, double, [6 x double], [6 x double], [6 x double], [6 x double] }

; Function Attrs: mustprogress uwtable
define internal noundef ptr @_ZL12setup_approxP8PJconsts(ptr noundef %0) #0 {
  %2 = alloca ptr, align 8
  %3 = alloca ptr, align 8
  %4 = alloca ptr, align 8
  %5 = alloca i32, align 4
  store ptr %0, ptr %3, align 8, !tbaa !3
  call void @llvm.lifetime.start.p0(i64 8, ptr %4) #11
  %6 = load ptr, ptr %3, align 8, !tbaa !3
  %7 = getelementptr inbounds nuw %struct.PJconsts, ptr %6, i32 0, i32 11
  %8 = load ptr, ptr %7, align 8, !tbaa !76
  %9 = getelementptr inbounds nuw %"struct.(anonymous namespace)::tmerc_data", ptr %8, i32 0, i32 0
  store ptr %9, ptr %4, align 8, !tbaa !90
  %10 = load ptr, ptr %3, align 8, !tbaa !3
  %11 = getelementptr inbounds nuw %struct.PJconsts, ptr %10, i32 0, i32 27
  %12 = load double, ptr %11, align 8, !tbaa !71
  %13 = fcmp une double %12, 0.000000e+00
  br i1 %13, label %14, label %53

14:                                               ; preds = %1
  %15 = load ptr, ptr %3, align 8, !tbaa !3
  %16 = getelementptr inbounds nuw %struct.PJconsts, ptr %15, i32 0, i32 36
  %17 = load double, ptr %16, align 8, !tbaa !92
  %18 = call noundef ptr @_Z7pj_enfnd(double noundef %17)
  %19 = load ptr, ptr %4, align 8, !tbaa !90
  %20 = getelementptr inbounds nuw %"struct.(anonymous namespace)::EvendenSnyder", ptr %19, i32 0, i32 2
  store ptr %18, ptr %20, align 8, !tbaa !93
  %21 = icmp ne ptr %18, null
  br i1 %21, label %25, label %22

22:                                               ; preds = %14
  %23 = load ptr, ptr %3, align 8, !tbaa !3
  %24 = call noundef ptr @_Z21pj_default_destructorP8PJconstsi(ptr noundef %23, i32 noundef 4096)
  store ptr %24, ptr %2, align 8
  store i32 1, ptr %5, align 4
  br label %67

25:                                               ; preds = %14
  %26 = load ptr, ptr %3, align 8, !tbaa !3
  %27 = getelementptr inbounds nuw %struct.PJconsts, ptr %26, i32 0, i32 61
  %28 = load double, ptr %27, align 8, !tbaa !72
  %29 = load ptr, ptr %3, align 8, !tbaa !3
  %30 = getelementptr inbounds nuw %struct.PJconsts, ptr %29, i32 0, i32 61
  %31 = load double, ptr %30, align 8, !tbaa !72
  %32 = call double @sin(double noundef %31) #11, !tbaa !84
  %33 = load ptr, ptr %3, align 8, !tbaa !3
  %34 = getelementptr inbounds nuw %struct.PJconsts, ptr %33, i32 0, i32 61
  %35 = load double, ptr %34, align 8, !tbaa !72
  %36 = call double @cos(double noundef %35) #11, !tbaa !84
  %37 = load ptr, ptr %4, align 8, !tbaa !90
  %38 = getelementptr inbounds nuw %"struct.(anonymous namespace)::EvendenSnyder", ptr %37, i32 0, i32 2
  %39 = load ptr, ptr %38, align 8, !tbaa !93
  %40 = call noundef double @_Z7pj_mlfndddPKd(double noundef %28, double noundef %32, double noundef %36, ptr noundef %39)
  %41 = load ptr, ptr %4, align 8, !tbaa !90
  %42 = getelementptr inbounds nuw %"struct.(anonymous namespace)::EvendenSnyder", ptr %41, i32 0, i32 1
  store double %40, ptr %42, align 8, !tbaa !94
  %43 = load ptr, ptr %3, align 8, !tbaa !3
  %44 = getelementptr inbounds nuw %struct.PJconsts, ptr %43, i32 0, i32 27
  %45 = load double, ptr %44, align 8, !tbaa !71
  %46 = load ptr, ptr %3, align 8, !tbaa !3
  %47 = getelementptr inbounds nuw %struct.PJconsts, ptr %46, i32 0, i32 27
  %48 = load double, ptr %47, align 8, !tbaa !71
  %49 = fsub double 1.000000e+00, %48
  %50 = fdiv double %45, %49
  %51 = load ptr, ptr %4, align 8, !tbaa !90
  %52 = getelementptr inbounds nuw %"struct.(anonymous namespace)::EvendenSnyder", ptr %51, i32 0, i32 0
  store double %50, ptr %52, align 8, !tbaa !95
  br label %65

53:                                               ; preds = %1
  %54 = load ptr, ptr %3, align 8, !tbaa !3
  %55 = getelementptr inbounds nuw %struct.PJconsts, ptr %54, i32 0, i32 66
  %56 = load double, ptr %55, align 8, !tbaa !73
  %57 = load ptr, ptr %4, align 8, !tbaa !90
  %58 = getelementptr inbounds nuw %"struct.(anonymous namespace)::EvendenSnyder", ptr %57, i32 0, i32 0
  store double %56, ptr %58, align 8, !tbaa !95
  %59 = load ptr, ptr %4, align 8, !tbaa !90
  %60 = getelementptr inbounds nuw %"struct.(anonymous namespace)::EvendenSnyder", ptr %59, i32 0, i32 0
  %61 = load double, ptr %60, align 8, !tbaa !95
  %62 = fmul double 5.000000e-01, %61
  %63 = load ptr, ptr %4, align 8, !tbaa !90
  %64 = getelementptr inbounds nuw %"struct.(anonymous namespace)::EvendenSnyder", ptr %63, i32 0, i32 1
  store double %62, ptr %64, align 8, !tbaa !94
  br label %65

65:                                               ; preds = %53, %25
  %66 = load ptr, ptr %3, align 8, !tbaa !3
  store ptr %66, ptr %2, align 8
  store i32 1, ptr %5, align 4
  br label %67

67:                                               ; preds = %65, %22
  call void @llvm.lifetime.end.p0(i64 8, ptr %4) #11
  %68 = load ptr, ptr %2, align 8
  ret ptr %68
}

; Function Attrs: mustprogress uwtable
define internal noundef ptr @_ZL5setupP8PJconsts9TMercAlgo(ptr noundef %0, i32 noundef %1) #0 {
  %3 = alloca ptr, align 8
  %4 = alloca ptr, align 8
  %5 = alloca i32, align 4
  %6 = alloca ptr, align 8
  %7 = alloca i32, align 4
  store ptr %0, ptr %4, align 8, !tbaa !3
  store i32 %1, ptr %5, align 4, !tbaa !41
  call void @llvm.lifetime.start.p0(i64 8, ptr %6) #11
  %8 = call noalias ptr @calloc(i64 noundef 1, i64 noundef 232) #13
  store ptr %8, ptr %6, align 8, !tbaa !74
  %9 = load ptr, ptr %6, align 8, !tbaa !74
  %10 = icmp eq ptr null, %9
  br i1 %10, label %11, label %14

11:                                               ; preds = %2
  %12 = load ptr, ptr %4, align 8, !tbaa !3
  %13 = call noundef ptr @_Z21pj_default_destructorP8PJconstsi(ptr noundef %12, i32 noundef 4096)
  store ptr %13, ptr %3, align 8
  store i32 1, ptr %7, align 4
  br label %71

14:                                               ; preds = %2
  %15 = load ptr, ptr %6, align 8, !tbaa !74
  %16 = load ptr, ptr %4, align 8, !tbaa !3
  %17 = getelementptr inbounds nuw %struct.PJconsts, ptr %16, i32 0, i32 11
  store ptr %15, ptr %17, align 8, !tbaa !76
  %18 = load ptr, ptr %4, align 8, !tbaa !3
  %19 = getelementptr inbounds nuw %struct.PJconsts, ptr %18, i32 0, i32 27
  %20 = load double, ptr %19, align 8, !tbaa !71
  %21 = fcmp oeq double %20, 0.000000e+00
  br i1 %21, label %22, label %23

22:                                               ; preds = %14
  store i32 1, ptr %5, align 4, !tbaa !41
  br label %23

23:                                               ; preds = %22, %14
  %24 = load i32, ptr %5, align 4, !tbaa !41
  switch i32 %24, label %69 [
    i32 1, label %25
    i32 2, label %48
    i32 0, label %55
  ]

25:                                               ; preds = %23
  %26 = load ptr, ptr %4, align 8, !tbaa !3
  %27 = getelementptr inbounds nuw %struct.PJconsts, ptr %26, i32 0, i32 19
  store ptr @_ZL10destructorP8PJconstsi, ptr %27, align 8, !tbaa !77
  %28 = load ptr, ptr %4, align 8, !tbaa !3
  %29 = call noundef ptr @_ZL12setup_approxP8PJconsts(ptr noundef %28)
  %30 = icmp ne ptr %29, null
  br i1 %30, label %32, label %31

31:                                               ; preds = %25
  store ptr null, ptr %3, align 8
  store i32 1, ptr %7, align 4
  br label %71

32:                                               ; preds = %25
  %33 = load ptr, ptr %4, align 8, !tbaa !3
  %34 = getelementptr inbounds nuw %struct.PJconsts, ptr %33, i32 0, i32 27
  %35 = load double, ptr %34, align 8, !tbaa !71
  %36 = fcmp oeq double %35, 0.000000e+00
  br i1 %36, label %37, label %42

37:                                               ; preds = %32
  %38 = load ptr, ptr %4, align 8, !tbaa !3
  %39 = getelementptr inbounds nuw %struct.PJconsts, ptr %38, i32 0, i32 14
  store ptr @_ZL19tmerc_spherical_inv5PJ_XYP8PJconsts, ptr %39, align 8, !tbaa !78
  %40 = load ptr, ptr %4, align 8, !tbaa !3
  %41 = getelementptr inbounds nuw %struct.PJconsts, ptr %40, i32 0, i32 13
  store ptr @_ZL19tmerc_spherical_fwd5PJ_LPP8PJconsts, ptr %41, align 8, !tbaa !79
  br label %47

42:                                               ; preds = %32
  %43 = load ptr, ptr %4, align 8, !tbaa !3
  %44 = getelementptr inbounds nuw %struct.PJconsts, ptr %43, i32 0, i32 14
  store ptr @_ZL12approx_e_inv5PJ_XYP8PJconsts, ptr %44, align 8, !tbaa !78
  %45 = load ptr, ptr %4, align 8, !tbaa !3
  %46 = getelementptr inbounds nuw %struct.PJconsts, ptr %45, i32 0, i32 13
  store ptr @_ZL12approx_e_fwd5PJ_LPP8PJconsts, ptr %46, align 8, !tbaa !79
  br label %47

47:                                               ; preds = %42, %37
  br label %69

48:                                               ; preds = %23
  %49 = load ptr, ptr %4, align 8, !tbaa !3
  %50 = call noundef ptr @_ZL11setup_exactP8PJconsts(ptr noundef %49)
  %51 = load ptr, ptr %4, align 8, !tbaa !3
  %52 = getelementptr inbounds nuw %struct.PJconsts, ptr %51, i32 0, i32 14
  store ptr @_ZL11exact_e_inv5PJ_XYP8PJconsts, ptr %52, align 8, !tbaa !78
  %53 = load ptr, ptr %4, align 8, !tbaa !3
  %54 = getelementptr inbounds nuw %struct.PJconsts, ptr %53, i32 0, i32 13
  store ptr @_ZL11exact_e_fwd5PJ_LPP8PJconsts, ptr %54, align 8, !tbaa !79
  br label %69

55:                                               ; preds = %23
  %56 = load ptr, ptr %4, align 8, !tbaa !3
  %57 = getelementptr inbounds nuw %struct.PJconsts, ptr %56, i32 0, i32 19
  store ptr @_ZL10destructorP8PJconstsi, ptr %57, align 8, !tbaa !77
  %58 = load ptr, ptr %4, align 8, !tbaa !3
  %59 = call noundef ptr @_ZL12setup_approxP8PJconsts(ptr noundef %58)
  %60 = icmp ne ptr %59, null
  br i1 %60, label %62, label %61

61:                                               ; preds = %55
  store ptr null, ptr %3, align 8
  store i32 1, ptr %7, align 4
  br label %71

62:                                               ; preds = %55
  %63 = load ptr, ptr %4, align 8, !tbaa !3
  %64 = call noundef ptr @_ZL11setup_exactP8PJconsts(ptr noundef %63)
  %65 = load ptr, ptr %4, align 8, !tbaa !3
  %66 = getelementptr inbounds nuw %struct.PJconsts, ptr %65, i32 0, i32 14
  store ptr @_ZL10auto_e_inv5PJ_XYP8PJconsts, ptr %66, align 8, !tbaa !78
  %67 = load ptr, ptr %4, align 8, !tbaa !3
  %68 = getelementptr inbounds nuw %struct.PJconsts, ptr %67, i32 0, i32 13
  store ptr @_ZL10auto_e_fwd5PJ_LPP8PJconsts, ptr %68, align 8, !tbaa !79
  br label %69

69:                                               ; preds = %23, %62, %48, %47
  %70 = load ptr, ptr %4, align 8, !tbaa !3
  store ptr %70, ptr %3, align 8
  store i32 1, ptr %7, align 4
  br label %71

71:                                               ; preds = %69, %61, %31, %11
  call void @llvm.lifetime.end.p0(i64 8, ptr %6) #11
  %72 = load ptr, ptr %3, align 8
  ret ptr %72
}