; Function Attrs: mustprogress uwtable
define internal fastcc noundef ptr @_ZL5setupP8PJconsts9TMercAlgo(ptr noundef %0, i32 noundef %1) unnamed_addr #0 {
  %3 = tail call noalias dereferenceable_or_null(232) ptr @calloc(i64 noundef 1, i64 noundef 232) #13
  %4 = icmp eq ptr %3, null
  br i1 %4, label %5, label %7

5:                                                ; preds = %2
  %6 = tail call noundef ptr @_Z21pj_default_destructorP8PJconstsi(ptr noundef %0, i32 noundef 4096)
  br label %73

7:                                                ; preds = %2
  %8 = getelementptr inbounds nuw i8, ptr %0, i64 88
  store ptr %3, ptr %8, align 8, !tbaa !70
  %9 = getelementptr inbounds nuw i8, ptr %0, i64 216
  %10 = load double, ptr %9, align 8, !tbaa !67
  %11 = fcmp oeq double %10, 0.000000e+00
  %.022 = select i1 %11, i32 1, i32 %1
  switch i32 %.022, label %73 [
    i32 1, label %12
    i32 2, label %42
    i32 0, label %46
  ]

12:                                               ; preds = %7
  %13 = getelementptr inbounds nuw i8, ptr %0, i64 152
  store ptr @_ZL10destructorP8PJconstsi, ptr %13, align 8, !tbaa !71
  %14 = fcmp une double %10, 0.000000e+00
  br i1 %14, label %15, label %30

15:                                               ; preds = %12
  %16 = getelementptr inbounds nuw i8, ptr %0, i64 288
  %17 = load double, ptr %16, align 8, !tbaa !72
  %18 = tail call noundef ptr @_Z7pj_enfnd(double noundef %17)
  %19 = getelementptr inbounds nuw i8, ptr %3, i64 16
  store ptr %18, ptr %19, align 8, !tbaa !73
  %.not.i = icmp eq ptr %18, null
  br i1 %.not.i, label %_ZL12setup_approxP8PJconsts.exit, label %20

20:                                               ; preds = %15
  %21 = getelementptr inbounds nuw i8, ptr %0, i64 448
  %22 = load double, ptr %21, align 8, !tbaa !68
  %23 = tail call double @sin(double noundef %22) #11, !tbaa !76
  %24 = tail call double @cos(double noundef %22) #11, !tbaa !76
  %25 = tail call noundef double @_Z7pj_mlfndddPKd(double noundef %22, double noundef %23, double noundef %24, ptr noundef nonnull %18)
  %26 = getelementptr inbounds nuw i8, ptr %3, i64 8
  store double %25, ptr %26, align 8, !tbaa !77
  %27 = load double, ptr %9, align 8, !tbaa !67
  %28 = fsub double 1.000000e+00, %27
  %29 = fdiv double %27, %28
  store double %29, ptr %3, align 8, !tbaa !78
  br label %_ZL12setup_approxP8PJconsts.exit.thread

30:                                               ; preds = %12
  %31 = getelementptr inbounds nuw i8, ptr %0, i64 488
  %32 = load double, ptr %31, align 8, !tbaa !69
  store double %32, ptr %3, align 8, !tbaa !78
  %33 = fmul double %32, 5.000000e-01
  %34 = getelementptr inbounds nuw i8, ptr %3, i64 8
  store double %33, ptr %34, align 8, !tbaa !77
  br label %_ZL12setup_approxP8PJconsts.exit.thread

_ZL12setup_approxP8PJconsts.exit:                 ; preds = %15
  %35 = tail call noundef ptr @_Z21pj_default_destructorP8PJconstsi(ptr noundef nonnull %0, i32 noundef 4096)
  %.not24 = icmp eq ptr %35, null
  br i1 %.not24, label %73, label %_ZL12setup_approxP8PJconsts.exit._ZL12setup_approxP8PJconsts.exit.threadthread-pre-split_crit_edge

_ZL12setup_approxP8PJconsts.exit._ZL12setup_approxP8PJconsts.exit.threadthread-pre-split_crit_edge: ; preds = %_ZL12setup_approxP8PJconsts.exit
  %.pr.pre = load double, ptr %9, align 8, !tbaa !67
  br label %_ZL12setup_approxP8PJconsts.exit.thread

_ZL12setup_approxP8PJconsts.exit.thread:          ; preds = %30, %_ZL12setup_approxP8PJconsts.exit._ZL12setup_approxP8PJconsts.exit.threadthread-pre-split_crit_edge, %20
  %36 = phi double [ %27, %20 ], [ %.pr.pre, %_ZL12setup_approxP8PJconsts.exit._ZL12setup_approxP8PJconsts.exit.threadthread-pre-split_crit_edge ], [ %10, %30 ]
  %37 = fcmp oeq double %36, 0.000000e+00
  %38 = getelementptr inbounds nuw i8, ptr %0, i64 112
  %39 = getelementptr inbounds nuw i8, ptr %0, i64 104
  br i1 %37, label %40, label %41

40:                                               ; preds = %_ZL12setup_approxP8PJconsts.exit.thread
  store ptr @_ZL19tmerc_spherical_inv5PJ_XYP8PJconsts, ptr %38, align 8, !tbaa !79
  store ptr @_ZL19tmerc_spherical_fwd5PJ_LPP8PJconsts, ptr %39, align 8, !tbaa !80
  br label %73

41:                                               ; preds = %_ZL12setup_approxP8PJconsts.exit.thread
  store ptr @_ZL12approx_e_inv5PJ_XYP8PJconsts, ptr %38, align 8, !tbaa !79
  store ptr @_ZL12approx_e_fwd5PJ_LPP8PJconsts, ptr %39, align 8, !tbaa !80
  br label %73

42:                                               ; preds = %7
  %43 = tail call fastcc noundef ptr @_ZL11setup_exactP8PJconsts(ptr noundef nonnull %0)
  %44 = getelementptr inbounds nuw i8, ptr %0, i64 112
  store ptr @_ZL11exact_e_inv5PJ_XYP8PJconsts, ptr %44, align 8, !tbaa !79
  %45 = getelementptr inbounds nuw i8, ptr %0, i64 104
  store ptr @_ZL11exact_e_fwd5PJ_LPP8PJconsts, ptr %45, align 8, !tbaa !80
  br label %73

46:                                               ; preds = %7
  %47 = getelementptr inbounds nuw i8, ptr %0, i64 152
  store ptr @_ZL10destructorP8PJconstsi, ptr %47, align 8, !tbaa !71
  %48 = fcmp une double %10, 0.000000e+00
  br i1 %48, label %49, label %64

49:                                               ; preds = %46
  %50 = getelementptr inbounds nuw i8, ptr %0, i64 288
  %51 = load double, ptr %50, align 8, !tbaa !72
  %52 = tail call noundef ptr @_Z7pj_enfnd(double noundef %51)
  %53 = getelementptr inbounds nuw i8, ptr %3, i64 16
  store ptr %52, ptr %53, align 8, !tbaa !73
  %.not.i26 = icmp eq ptr %52, null
  br i1 %.not.i26, label %_ZL12setup_approxP8PJconsts.exit27, label %54

54:                                               ; preds = %49
  %55 = getelementptr inbounds nuw i8, ptr %0, i64 448
  %56 = load double, ptr %55, align 8, !tbaa !68
  %57 = tail call double @sin(double noundef %56) #11, !tbaa !76
  %58 = tail call double @cos(double noundef %56) #11, !tbaa !76
  %59 = tail call noundef double @_Z7pj_mlfndddPKd(double noundef %56, double noundef %57, double noundef %58, ptr noundef nonnull %52)
  %60 = getelementptr inbounds nuw i8, ptr %3, i64 8
  store double %59, ptr %60, align 8, !tbaa !77
  %61 = load double, ptr %9, align 8, !tbaa !67
  %62 = fsub double 1.000000e+00, %61
  %63 = fdiv double %61, %62
  store double %63, ptr %3, align 8, !tbaa !78
  br label %_ZL12setup_approxP8PJconsts.exit27.thread

64:                                               ; preds = %46
  %65 = getelementptr inbounds nuw i8, ptr %0, i64 488
  %66 = load double, ptr %65, align 8, !tbaa !69
  store double %66, ptr %3, align 8, !tbaa !78
  %67 = fmul double %66, 5.000000e-01
  %68 = getelementptr inbounds nuw i8, ptr %3, i64 8
  store double %67, ptr %68, align 8, !tbaa !77
  br label %_ZL12setup_approxP8PJconsts.exit27.thread

_ZL12setup_approxP8PJconsts.exit27:               ; preds = %49
  %69 = tail call noundef ptr @_Z21pj_default_destructorP8PJconstsi(ptr noundef nonnull %0, i32 noundef 4096)
  %.not = icmp eq ptr %69, null
  br i1 %.not, label %73, label %_ZL12setup_approxP8PJconsts.exit27.thread

_ZL12setup_approxP8PJconsts.exit27.thread:        ; preds = %54, %64, %_ZL12setup_approxP8PJconsts.exit27
  %70 = tail call fastcc noundef ptr @_ZL11setup_exactP8PJconsts(ptr noundef nonnull %0)
  %71 = getelementptr inbounds nuw i8, ptr %0, i64 112
  store ptr @_ZL10auto_e_inv5PJ_XYP8PJconsts, ptr %71, align 8, !tbaa !79
  %72 = getelementptr inbounds nuw i8, ptr %0, i64 104
  store ptr @_ZL10auto_e_fwd5PJ_LPP8PJconsts, ptr %72, align 8, !tbaa !80
  br label %73

73:                                               ; preds = %7, %42, %_ZL12setup_approxP8PJconsts.exit27.thread, %41, %40, %_ZL12setup_approxP8PJconsts.exit27, %_ZL12setup_approxP8PJconsts.exit, %5
  %.0 = phi ptr [ %6, %5 ], [ null, %_ZL12setup_approxP8PJconsts.exit ], [ null, %_ZL12setup_approxP8PJconsts.exit27 ], [ %0, %40 ], [ %0, %41 ], [ %0, %_ZL12setup_approxP8PJconsts.exit27.thread ], [ %0, %42 ], [ %0, %7 ]
  ret ptr %.0
}